target datalayout = "e-m:e-p270:32:32-p271:32:32-p272:64:64-i64:64-i128:128-f80:128-n8:16:32:64-S128"
target triple = "x86_64-pc-linux-gnu"

%struct.opts_t = type { i32, i32, i32, i32, i32, i32, i32, i32, i32, ptr, ptr, ptr }

@opts = internal global %struct.opts_t zeroinitializer, align 8
@.str.20 = private unnamed_addr constant [8 x i8] c"  %s%u\0A\00", align 1
@.str.21 = private unnamed_addr constant [16 x i8] c"  %s%u -- %s%u\0A\00", align 1

; Function Attrs: nounwind uwtable
define internal void @undirfn(i32 noundef %0, i32 noundef %1) #0 {
  %3 = alloca i32, align 4
  %4 = alloca i32, align 4
  store i32 %0, ptr %3, align 4, !tbaa !4
  store i32 %1, ptr %4, align 4, !tbaa !4
  %5 = load i32, ptr %4, align 4, !tbaa !4
  %6 = icmp ugt i32 %5, 0
  br i1 %6, label %7, label %14

7:                                                ; preds = %2
  %8 = load ptr, ptr getelementptr inbounds nuw (%struct.opts_t, ptr @opts, i32 0, i32 9), align 8, !tbaa !18
  %9 = load ptr, ptr getelementptr inbounds nuw (%struct.opts_t, ptr @opts, i32 0, i32 10), align 8, !tbaa !11
  %10 = load i32, ptr %3, align 4, !tbaa !4
  %11 = load ptr, ptr getelementptr inbounds nuw (%struct.opts_t, ptr @opts, i32 0, i32 10), align 8, !tbaa !11
  %12 = load i32, ptr %4, align 4, !tbaa !4
  %13 = call i32 (ptr, ptr, ...) @fprintf(ptr noundef %8, ptr noundef @.str.21, ptr noundef %9, i32 noundef %10, ptr noundef %11, i32 noundef %12) #8
  br label %19

14:                                               ; preds = %2
  %15 = load ptr, ptr getelementptr inbounds nuw (%struct.opts_t, ptr @opts, i32 0, i32 9), align 8, !tbaa !18
  %16 = load ptr, ptr getelementptr inbounds nuw (%struct.opts_t, ptr @opts, i32 0, i32 10), align 8, !tbaa !11
  %17 = load i32, ptr %3, align 4, !tbaa !4
  %18 = call i32 (ptr, ptr, ...) @fprintf(ptr noundef %15, ptr noundef @.str.20, ptr noundef %16, i32 noundef %17) #8
  br label %19

19:                                               ; preds = %14, %7
  ret void
}