; Function Attrs: nofree nounwind uwtable
define internal void @undirfn(i32 noundef %0, i32 noundef %1) #3 {
  %.not = icmp eq i32 %1, 0
  %3 = load ptr, ptr @opts.9, align 8, !tbaa !22
  %4 = load ptr, ptr @opts.10, align 8, !tbaa !4
  br i1 %.not, label %7, label %5

5:                                                ; preds = %2
  %6 = tail call i32 (ptr, ptr, ...) @fprintf(ptr noundef %3, ptr noundef nonnull @.str.21, ptr noundef %4, i32 noundef %0, ptr noundef %4, i32 noundef %1) #11
  br label %9

7:                                                ; preds = %2
  %8 = tail call i32 (ptr, ptr, ...) @fprintf(ptr noundef %3, ptr noundef nonnull @.str.20, ptr noundef %4, i32 noundef %0) #11
  br label %9

9:                                                ; preds = %7, %5
  ret void
}